target datalayout = "e-m:e-p270:32:32-p271:32:32-p272:64:64-i64:64-i128:128-f80:128-n8:16:32:64-S128"
target triple = "x86_64-pc-linux-gnu"

%struct.exr_attr_opaquedata_t = type { i32, i32, i32, [4 x i8], ptr, ptr, ptr, ptr, ptr }
%struct._priv_exr_context_t = type { i8, i8, i8, i8, i8, i8, i8, i8, %struct.exr_attr_string_t, %struct.exr_attr_string_t, ptr, ptr, ptr, ptr, ptr, ptr, ptr, ptr, i32, i32, i32, i32, i32, float, ptr, ptr, ptr, i64, ptr, ptr, i64, i32, i32, i32, i32, %struct._priv_exr_part_t, ptr, ptr, %struct.exr_attribute_list, %union.pthread_mutex_t, i8, i8, [2 x i8], i32 }
%struct.exr_attr_string_t = type { i32, i32, ptr }
%struct._priv_exr_part_t = type { i32, i32, %struct.exr_attribute_list, ptr, ptr, ptr, ptr, ptr, ptr, ptr, ptr, ptr, ptr, ptr, ptr, ptr, ptr, %struct.exr_attr_box2i_t, %struct.exr_attr_box2i_t, i32, i32, i32, float, i32, i32, ptr, ptr, ptr, ptr, i64, i16, i16, i32, i64, i64 }
%struct.exr_attr_box2i_t = type { %struct.exr_attr_v2i_t, %struct.exr_attr_v2i_t }
%struct.exr_attr_v2i_t = type { i32, i32 }
%struct.exr_attribute_list = type { i32, i32, ptr, ptr }
%union.pthread_mutex_t = type { %struct.__pthread_mutex_s }
%struct.__pthread_mutex_s = type { i32, i32, i32, i32, i32, i16, i16, %struct.__pthread_internal_list }
%struct.__pthread_internal_list = type { ptr, ptr }

@.str.6 = private unnamed_addr constant [45 x i8] c"Opaque data given invalid negative size (%d)\00", align 1

; Function Attrs: nounwind uwtable
define hidden i32 @exr_attr_opaquedata_set_packed(ptr noundef %0, ptr noundef %1, ptr noundef %2, i32 noundef %3) #0 {
  %5 = alloca i32, align 4
  %6 = alloca ptr, align 8
  %7 = alloca ptr, align 8
  %8 = alloca ptr, align 8
  %9 = alloca i32, align 4
  %10 = alloca ptr, align 8
  %11 = alloca i32, align 4
  store ptr %0, ptr %6, align 8, !tbaa !3
  store ptr %1, ptr %7, align 8, !tbaa !8
  store ptr %2, ptr %8, align 8, !tbaa !8
  store i32 %3, ptr %9, align 4, !tbaa !28
  call void @llvm.lifetime.start.p0(i64 8, ptr %10) #4
  %12 = load ptr, ptr %6, align 8, !tbaa !3
  %13 = icmp ne ptr %12, null
  br i1 %13, label %15, label %14

14:                                               ; preds = %4
  store i32 2, ptr %5, align 4
  store i32 1, ptr %11, align 4
  br label %119

15:                                               ; preds = %4
  %16 = load ptr, ptr %7, align 8, !tbaa !8
  %17 = icmp ne ptr %16, null
  br i1 %17, label %24, label %18

18:                                               ; preds = %15
  %19 = load ptr, ptr %6, align 8, !tbaa !3
  %20 = getelementptr inbounds nuw %struct._priv_exr_context_t, ptr %19, i32 0, i32 12
  %21 = load ptr, ptr %20, align 8, !tbaa !33
  %22 = load ptr, ptr %6, align 8, !tbaa !3
  %23 = call i32 %21(ptr noundef %22, i32 noundef 3)
  store i32 %23, ptr %5, align 4
  store i32 1, ptr %11, align 4
  br label %119

24:                                               ; preds = %15
  %25 = load i32, ptr %9, align 4, !tbaa !28
  %26 = icmp slt i32 %25, 0
  br i1 %26, label %27, label %34

27:                                               ; preds = %24
  %28 = load ptr, ptr %6, align 8, !tbaa !3
  %29 = getelementptr inbounds nuw %struct._priv_exr_context_t, ptr %28, i32 0, i32 14
  %30 = load ptr, ptr %29, align 8, !tbaa !26
  %31 = load ptr, ptr %6, align 8, !tbaa !3
  %32 = load i32, ptr %9, align 4, !tbaa !28
  %33 = call i32 (ptr, i32, ptr, ...) %30(ptr noundef %31, i32 noundef 3, ptr noundef @.str.6, i32 noundef %32)
  store i32 %33, ptr %5, align 4
  store i32 1, ptr %11, align 4
  br label %119

34:                                               ; preds = %24
  %35 = load ptr, ptr %6, align 8, !tbaa !3
  %36 = getelementptr inbounds nuw %struct._priv_exr_context_t, ptr %35, i32 0, i32 16
  %37 = load ptr, ptr %36, align 8, !tbaa !30
  %38 = load i32, ptr %9, align 4, !tbaa !28
  %39 = sext i32 %38 to i64
  %40 = call ptr %37(i64 noundef %39)
  store ptr %40, ptr %10, align 8, !tbaa !8
  %41 = load ptr, ptr %10, align 8, !tbaa !8
  %42 = icmp ne ptr %41, null
  br i1 %42, label %49, label %43

43:                                               ; preds = %34
  %44 = load ptr, ptr %6, align 8, !tbaa !3
  %45 = getelementptr inbounds nuw %struct._priv_exr_context_t, ptr %44, i32 0, i32 12
  %46 = load ptr, ptr %45, align 8, !tbaa !33
  %47 = load ptr, ptr %6, align 8, !tbaa !3
  %48 = call i32 %46(ptr noundef %47, i32 noundef 1)
  store i32 %48, ptr %5, align 4
  store i32 1, ptr %11, align 4
  br label %119

49:                                               ; preds = %34
  %50 = load ptr, ptr %7, align 8, !tbaa !8
  %51 = getelementptr inbounds nuw %struct.exr_attr_opaquedata_t, ptr %50, i32 0, i32 5
  %52 = load ptr, ptr %51, align 8, !tbaa !37
  %53 = icmp ne ptr %52, null
  br i1 %53, label %54, label %71

54:                                               ; preds = %49
  %55 = load ptr, ptr %7, align 8, !tbaa !8
  %56 = getelementptr inbounds nuw %struct.exr_attr_opaquedata_t, ptr %55, i32 0, i32 8
  %57 = load ptr, ptr %56, align 8, !tbaa !38
  %58 = icmp ne ptr %57, null
  br i1 %58, label %59, label %70

59:                                               ; preds = %54
  %60 = load ptr, ptr %7, align 8, !tbaa !8
  %61 = getelementptr inbounds nuw %struct.exr_attr_opaquedata_t, ptr %60, i32 0, i32 8
  %62 = load ptr, ptr %61, align 8, !tbaa !38
  %63 = load ptr, ptr %6, align 8, !tbaa !3
  %64 = load ptr, ptr %7, align 8, !tbaa !8
  %65 = getelementptr inbounds nuw %struct.exr_attr_opaquedata_t, ptr %64, i32 0, i32 5
  %66 = load ptr, ptr %65, align 8, !tbaa !37
  %67 = load ptr, ptr %7, align 8, !tbaa !8
  %68 = getelementptr inbounds nuw %struct.exr_attr_opaquedata_t, ptr %67, i32 0, i32 1
  %69 = load i32, ptr %68, align 4, !tbaa !39
  call void %62(ptr noundef %63, ptr noundef %66, i32 noundef %69)
  br label %70

70:                                               ; preds = %59, %54
  br label %71

71:                                               ; preds = %70, %49
  %72 = load ptr, ptr %7, align 8, !tbaa !8
  %73 = getelementptr inbounds nuw %struct.exr_attr_opaquedata_t, ptr %72, i32 0, i32 5
  store ptr null, ptr %73, align 8, !tbaa !37
  %74 = load ptr, ptr %7, align 8, !tbaa !8
  %75 = getelementptr inbounds nuw %struct.exr_attr_opaquedata_t, ptr %74, i32 0, i32 1
  store i32 0, ptr %75, align 4, !tbaa !39
  %76 = load ptr, ptr %7, align 8, !tbaa !8
  %77 = getelementptr inbounds nuw %struct.exr_attr_opaquedata_t, ptr %76, i32 0, i32 4
  %78 = load ptr, ptr %77, align 8, !tbaa !31
  %79 = icmp ne ptr %78, null
  br i1 %79, label %80, label %99

80:                                               ; preds = %71
  %81 = load ptr, ptr %7, align 8, !tbaa !8
  %82 = getelementptr inbounds nuw %struct.exr_attr_opaquedata_t, ptr %81, i32 0, i32 2
  %83 = load i32, ptr %82, align 8, !tbaa !35
  %84 = icmp sgt i32 %83, 0
  br i1 %84, label %85, label %92

85:                                               ; preds = %80
  %86 = load ptr, ptr %6, align 8, !tbaa !3
  %87 = getelementptr inbounds nuw %struct._priv_exr_context_t, ptr %86, i32 0, i32 17
  %88 = load ptr, ptr %87, align 8, !tbaa !36
  %89 = load ptr, ptr %7, align 8, !tbaa !8
  %90 = getelementptr inbounds nuw %struct.exr_attr_opaquedata_t, ptr %89, i32 0, i32 4
  %91 = load ptr, ptr %90, align 8, !tbaa !31
  call void %88(ptr noundef %91)
  br label %92

92:                                               ; preds = %85, %80
  %93 = load ptr, ptr %7, align 8, !tbaa !8
  %94 = getelementptr inbounds nuw %struct.exr_attr_opaquedata_t, ptr %93, i32 0, i32 4
  store ptr null, ptr %94, align 8, !tbaa !31
  %95 = load ptr, ptr %7, align 8, !tbaa !8
  %96 = getelementptr inbounds nuw %struct.exr_attr_opaquedata_t, ptr %95, i32 0, i32 0
  store i32 0, ptr %96, align 8, !tbaa !34
  %97 = load ptr, ptr %7, align 8, !tbaa !8
  %98 = getelementptr inbounds nuw %struct.exr_attr_opaquedata_t, ptr %97, i32 0, i32 2
  store i32 0, ptr %98, align 8, !tbaa !35
  br label %99

99:                                               ; preds = %92, %71
  %100 = load ptr, ptr %10, align 8, !tbaa !8
  %101 = load ptr, ptr %7, align 8, !tbaa !8
  %102 = getelementptr inbounds nuw %struct.exr_attr_opaquedata_t, ptr %101, i32 0, i32 4
  store ptr %100, ptr %102, align 8, !tbaa !31
  %103 = load i32, ptr %9, align 4, !tbaa !28
  %104 = load ptr, ptr %7, align 8, !tbaa !8
  %105 = getelementptr inbounds nuw %struct.exr_attr_opaquedata_t, ptr %104, i32 0, i32 0
  store i32 %103, ptr %105, align 8, !tbaa !34
  %106 = load i32, ptr %9, align 4, !tbaa !28
  %107 = load ptr, ptr %7, align 8, !tbaa !8
  %108 = getelementptr inbounds nuw %struct.exr_attr_opaquedata_t, ptr %107, i32 0, i32 2
  store i32 %106, ptr %108, align 8, !tbaa !35
  %109 = load ptr, ptr %8, align 8, !tbaa !8
  %110 = icmp ne ptr %109, null
  br i1 %110, label %111, label %118

111:                                              ; preds = %99
  %112 = load ptr, ptr %7, align 8, !tbaa !8
  %113 = getelementptr inbounds nuw %struct.exr_attr_opaquedata_t, ptr %112, i32 0, i32 4
  %114 = load ptr, ptr %113, align 8, !tbaa !31
  %115 = load ptr, ptr %8, align 8, !tbaa !8
  %116 = load i32, ptr %9, align 4, !tbaa !28
  %117 = sext i32 %116 to i64
  call void @llvm.memcpy.p0.p0.i64(ptr align 1 %114, ptr align 1 %115, i64 %117, i1 false)
  br label %118

118:                                              ; preds = %111, %99
  store i32 0, ptr %5, align 4
  store i32 1, ptr %11, align 4
  br label %119

119:                                              ; preds = %118, %43, %27, %18, %14
  call void @llvm.lifetime.end.p0(i64 8, ptr %10) #4
  %120 = load i32, ptr %5, align 4
  ret i32 %120
}