; Function Attrs: nounwind uwtable
define hidden i32 @exr_attr_opaquedata_set_packed(ptr noundef %0, ptr noundef %1, ptr noundef readonly %2, i32 noundef %3) local_unnamed_addr #0 {
  %.not = icmp eq ptr %0, null
  br i1 %.not, label %48, label %5

5:                                                ; preds = %4
  %.not46 = icmp eq ptr %1, null
  br i1 %.not46, label %6, label %10

6:                                                ; preds = %5
  %7 = getelementptr inbounds nuw i8, ptr %0, i64 56
  %8 = load ptr, ptr %7, align 8, !tbaa !26
  %9 = tail call i32 %8(ptr noundef nonnull %0, i32 noundef 3) #4
  br label %48

10:                                               ; preds = %5
  %11 = icmp slt i32 %3, 0
  br i1 %11, label %12, label %16

12:                                               ; preds = %10
  %13 = getelementptr inbounds nuw i8, ptr %0, i64 72
  %14 = load ptr, ptr %13, align 8, !tbaa !22
  %15 = tail call i32 (ptr, i32, ptr, ...) %14(ptr noundef nonnull %0, i32 noundef 3, ptr noundef nonnull @.str.6, i32 noundef %3) #4
  br label %48

16:                                               ; preds = %10
  %17 = getelementptr inbounds nuw i8, ptr %0, i64 88
  %18 = load ptr, ptr %17, align 8, !tbaa !23
  %19 = zext nneg i32 %3 to i64
  %20 = tail call ptr %18(i64 noundef %19) #4
  %.not47 = icmp eq ptr %20, null
  br i1 %.not47, label %21, label %25

21:                                               ; preds = %16
  %22 = getelementptr inbounds nuw i8, ptr %0, i64 56
  %23 = load ptr, ptr %22, align 8, !tbaa !26
  %24 = tail call i32 %23(ptr noundef nonnull %0, i32 noundef 1) #4
  br label %48

25:                                               ; preds = %16
  %26 = getelementptr inbounds nuw i8, ptr %1, i64 24
  %27 = load ptr, ptr %26, align 8, !tbaa !30
  %.not48 = icmp eq ptr %27, null
  br i1 %.not48, label %34, label %28

28:                                               ; preds = %25
  %29 = getelementptr inbounds nuw i8, ptr %1, i64 48
  %30 = load ptr, ptr %29, align 8, !tbaa !31
  %.not49 = icmp eq ptr %30, null
  br i1 %.not49, label %34, label %31

31:                                               ; preds = %28
  %32 = getelementptr inbounds nuw i8, ptr %1, i64 4
  %33 = load i32, ptr %32, align 4, !tbaa !32
  tail call void %30(ptr noundef nonnull %0, ptr noundef nonnull %27, i32 noundef %33) #4
  br label %34

34:                                               ; preds = %28, %31, %25
  store ptr null, ptr %26, align 8, !tbaa !30
  %35 = getelementptr inbounds nuw i8, ptr %1, i64 4
  store i32 0, ptr %35, align 4, !tbaa !32
  %36 = getelementptr inbounds nuw i8, ptr %1, i64 16
  %37 = load ptr, ptr %36, align 8, !tbaa !24
  %.not50 = icmp eq ptr %37, null
  br i1 %.not50, label %45, label %38

38:                                               ; preds = %34
  %39 = getelementptr inbounds nuw i8, ptr %1, i64 8
  %40 = load i32, ptr %39, align 8, !tbaa !28
  %41 = icmp sgt i32 %40, 0
  br i1 %41, label %42, label %45

42:                                               ; preds = %38
  %43 = getelementptr inbounds nuw i8, ptr %0, i64 96
  %44 = load ptr, ptr %43, align 8, !tbaa !29
  tail call void %44(ptr noundef nonnull %37) #4
  br label %45

45:                                               ; preds = %38, %42, %34
  store ptr %20, ptr %36, align 8, !tbaa !24
  store i32 %3, ptr %1, align 8, !tbaa !27
  %46 = getelementptr inbounds nuw i8, ptr %1, i64 8
  store i32 %3, ptr %46, align 8, !tbaa !28
  %.not51 = icmp eq ptr %2, null
  br i1 %.not51, label %48, label %47

47:                                               ; preds = %45
  tail call void @llvm.memcpy.p0.p0.i64(ptr nonnull align 1 %20, ptr nonnull align 1 %2, i64 %19, i1 false)
  br label %48

48:                                               ; preds = %45, %47, %4, %21, %12, %6
  %.0 = phi i32 [ %15, %12 ], [ %24, %21 ], [ %9, %6 ], [ 2, %4 ], [ 0, %47 ], [ 0, %45 ]
  ret i32 %.0
}